target datalayout = "e-m:e-p270:32:32-p271:32:32-p272:64:64-i64:64-i128:128-f80:128-n8:16:32:64-S128"
target triple = "x86_64-pc-linux-gnu"

%struct.sdshdr8 = type { i8, i8, i8, [0 x i8] }
%struct.sdshdr16 = type <{ i16, i16, i8, [0 x i8] }>
%struct.sdshdr32 = type <{ i32, i32, i8, [0 x i8] }>
%struct.sdshdr64 = type <{ i64, i64, i8, [0 x i8] }>
%struct._rio = type { ptr, ptr, ptr, ptr, ptr, i64, i64, i64, i64, %union.anon }
%union.anon = type { %struct.anon.2 }
%struct.anon.2 = type { ptr, i64, ptr, i64, i64 }
%struct.anon.0 = type { ptr, i64 }

; Function Attrs: inlinehint nounwind uwtable
define internal i64 @sdslen(ptr noundef %0) #8 {
  %2 = alloca i64, align 8
  %3 = alloca ptr, align 8
  %4 = alloca i8, align 1
  %5 = alloca i32, align 4
  store ptr %0, ptr %3, align 8, !tbaa !57
  call void @llvm.lifetime.start.p0(i64 1, ptr %4) #11
  %6 = load ptr, ptr %3, align 8, !tbaa !57
  %7 = getelementptr inbounds i8, ptr %6, i64 -1
  %8 = load i8, ptr %7, align 1, !tbaa !65
  store i8 %8, ptr %4, align 1, !tbaa !65
  %9 = load i8, ptr %4, align 1, !tbaa !65
  %10 = zext i8 %9 to i32
  %11 = and i32 %10, 7
  switch i32 %11, label %40 [
    i32 0, label %12
    i32 1, label %17
    i32 2, label %23
    i32 3, label %29
    i32 4, label %35
  ]

12:                                               ; preds = %1
  %13 = load i8, ptr %4, align 1, !tbaa !65
  %14 = zext i8 %13 to i32
  %15 = ashr i32 %14, 3
  %16 = sext i32 %15 to i64
  store i64 %16, ptr %2, align 8
  store i32 1, ptr %5, align 4
  br label %41

17:                                               ; preds = %1
  %18 = load ptr, ptr %3, align 8, !tbaa !57
  %19 = getelementptr inbounds i8, ptr %18, i64 -3
  %20 = getelementptr inbounds nuw %struct.sdshdr8, ptr %19, i32 0, i32 0
  %21 = load i8, ptr %20, align 1, !tbaa !65
  %22 = zext i8 %21 to i64
  store i64 %22, ptr %2, align 8
  store i32 1, ptr %5, align 4
  br label %41

23:                                               ; preds = %1
  %24 = load ptr, ptr %3, align 8, !tbaa !57
  %25 = getelementptr inbounds i8, ptr %24, i64 -5
  %26 = getelementptr inbounds nuw %struct.sdshdr16, ptr %25, i32 0, i32 0
  %27 = load i16, ptr %26, align 1, !tbaa !113
  %28 = zext i16 %27 to i64
  store i64 %28, ptr %2, align 8
  store i32 1, ptr %5, align 4
  br label %41

29:                                               ; preds = %1
  %30 = load ptr, ptr %3, align 8, !tbaa !57
  %31 = getelementptr inbounds i8, ptr %30, i64 -9
  %32 = getelementptr inbounds nuw %struct.sdshdr32, ptr %31, i32 0, i32 0
  %33 = load i32, ptr %32, align 1, !tbaa !54
  %34 = zext i32 %33 to i64
  store i64 %34, ptr %2, align 8
  store i32 1, ptr %5, align 4
  br label %41

35:                                               ; preds = %1
  %36 = load ptr, ptr %3, align 8, !tbaa !57
  %37 = getelementptr inbounds i8, ptr %36, i64 -17
  %38 = getelementptr inbounds nuw %struct.sdshdr64, ptr %37, i32 0, i32 0
  %39 = load i64, ptr %38, align 1, !tbaa !59
  store i64 %39, ptr %2, align 8
  store i32 1, ptr %5, align 4
  br label %41

40:                                               ; preds = %1
  store i64 0, ptr %2, align 8
  store i32 1, ptr %5, align 4
  br label %41

41:                                               ; preds = %40, %35, %29, %23, %17, %12
  call void @llvm.lifetime.end.p0(i64 1, ptr %4) #11
  %42 = load i64, ptr %2, align 8
  ret i64 %42
}

; Function Attrs: nounwind uwtable
define dso_local void @functionDumpCommand(ptr noundef %0) #1 {
  %2 = alloca ptr, align 8
  %3 = alloca [2 x i8], align 1
  %4 = alloca i64, align 8
  %5 = alloca %struct._rio, align 8
  store ptr %0, ptr %2, align 8, !tbaa !91
  call void @llvm.lifetime.start.p0(i64 2, ptr %3) #11
  call void @llvm.lifetime.start.p0(i64 8, ptr %4) #11
  call void @llvm.lifetime.start.p0(i64 112, ptr %5) #11
  %6 = call ptr @sdsempty()
  call void @rioInitWithBuffer(ptr noundef %5, ptr noundef %6)
  %7 = call i64 @rdbSaveFunctions(ptr noundef %5)
  %8 = getelementptr inbounds [2 x i8], ptr %3, i64 0, i64 0
  store i8 12, ptr %8, align 1, !tbaa !65
  %9 = getelementptr inbounds [2 x i8], ptr %3, i64 0, i64 1
  store i8 0, ptr %9, align 1, !tbaa !65
  %10 = getelementptr inbounds nuw %struct._rio, ptr %5, i32 0, i32 9
  %11 = getelementptr inbounds nuw %struct.anon.0, ptr %10, i32 0, i32 0
  %12 = load ptr, ptr %11, align 8, !tbaa !65
  %13 = getelementptr inbounds [2 x i8], ptr %3, i64 0, i64 0
  %14 = call ptr @sdscatlen(ptr noundef %12, ptr noundef %13, i64 noundef 2)
  %15 = getelementptr inbounds nuw %struct._rio, ptr %5, i32 0, i32 9
  %16 = getelementptr inbounds nuw %struct.anon.0, ptr %15, i32 0, i32 0
  store ptr %14, ptr %16, align 8, !tbaa !65
  %17 = getelementptr inbounds nuw %struct._rio, ptr %5, i32 0, i32 9
  %18 = getelementptr inbounds nuw %struct.anon.0, ptr %17, i32 0, i32 0
  %19 = load ptr, ptr %18, align 8, !tbaa !65
  %20 = getelementptr inbounds nuw %struct._rio, ptr %5, i32 0, i32 9
  %21 = getelementptr inbounds nuw %struct.anon.0, ptr %20, i32 0, i32 0
  %22 = load ptr, ptr %21, align 8, !tbaa !65
  %23 = call i64 @sdslen(ptr noundef %22)
  %24 = call i64 @crc64(i64 noundef 0, ptr noundef %19, i64 noundef %23)
  store i64 %24, ptr %4, align 8, !tbaa !59
  %25 = getelementptr inbounds nuw %struct._rio, ptr %5, i32 0, i32 9
  %26 = getelementptr inbounds nuw %struct.anon.0, ptr %25, i32 0, i32 0
  %27 = load ptr, ptr %26, align 8, !tbaa !65
  %28 = call ptr @sdscatlen(ptr noundef %27, ptr noundef %4, i64 noundef 8)
  %29 = getelementptr inbounds nuw %struct._rio, ptr %5, i32 0, i32 9
  %30 = getelementptr inbounds nuw %struct.anon.0, ptr %29, i32 0, i32 0
  store ptr %28, ptr %30, align 8, !tbaa !65
  %31 = load ptr, ptr %2, align 8, !tbaa !91
  %32 = getelementptr inbounds nuw %struct._rio, ptr %5, i32 0, i32 9
  %33 = getelementptr inbounds nuw %struct.anon.0, ptr %32, i32 0, i32 0
  %34 = load ptr, ptr %33, align 8, !tbaa !65
  call void @addReplyBulkSds(ptr noundef %31, ptr noundef %34)
  call void @llvm.lifetime.end.p0(i64 112, ptr %5) #11
  call void @llvm.lifetime.end.p0(i64 8, ptr %4) #11
  call void @llvm.lifetime.end.p0(i64 2, ptr %3) #11
  ret void
}