; Function Attrs: nounwind uwtable
define dso_local void @functionDumpCommand(ptr noundef %0) local_unnamed_addr #1 {
  %2 = alloca [2 x i8], align 1
  %3 = alloca i64, align 8
  %4 = alloca %struct._rio, align 8
  call void @llvm.lifetime.start.p0(i64 2, ptr nonnull %2) #12
  call void @llvm.lifetime.start.p0(i64 8, ptr nonnull %3) #12
  call void @llvm.lifetime.start.p0(i64 112, ptr nonnull %4) #12
  %5 = tail call ptr @sdsempty() #12
  call void @rioInitWithBuffer(ptr noundef nonnull %4, ptr noundef %5) #12
  %6 = call i64 @rdbSaveFunctions(ptr noundef nonnull %4) #12
  store i8 12, ptr %2, align 1, !tbaa !44
  %7 = getelementptr inbounds nuw i8, ptr %2, i64 1
  store i8 0, ptr %7, align 1, !tbaa !44
  %8 = getelementptr inbounds nuw i8, ptr %4, i64 72
  %9 = load ptr, ptr %8, align 8, !tbaa !44
  %10 = call ptr @sdscatlen(ptr noundef %9, ptr noundef nonnull %2, i64 noundef 2) #12
  store ptr %10, ptr %8, align 8, !tbaa !44
  %11 = getelementptr inbounds i8, ptr %10, i64 -1
  %12 = load i8, ptr %11, align 1, !tbaa !44
  %13 = zext i8 %12 to i32
  %14 = and i32 %13, 7
  switch i32 %14, label %sdslen.exit [
    i32 0, label %15
    i32 1, label %18
    i32 2, label %22
    i32 3, label %26
    i32 4, label %30
  ]

15:                                               ; preds = %1
  %16 = lshr i32 %13, 3
  %17 = zext nneg i32 %16 to i64
  br label %sdslen.exit

18:                                               ; preds = %1
  %19 = getelementptr inbounds i8, ptr %10, i64 -3
  %20 = load i8, ptr %19, align 1, !tbaa !44
  %21 = zext i8 %20 to i64
  br label %sdslen.exit

22:                                               ; preds = %1
  %23 = getelementptr inbounds i8, ptr %10, i64 -5
  %24 = load i16, ptr %23, align 1, !tbaa !45
  %25 = zext i16 %24 to i64
  br label %sdslen.exit

26:                                               ; preds = %1
  %27 = getelementptr inbounds i8, ptr %10, i64 -9
  %28 = load i32, ptr %27, align 1, !tbaa !47
  %29 = zext i32 %28 to i64
  br label %sdslen.exit

30:                                               ; preds = %1
  %31 = getelementptr inbounds i8, ptr %10, i64 -17
  %32 = load i64, ptr %31, align 1, !tbaa !49
  br label %sdslen.exit

sdslen.exit:                                      ; preds = %1, %15, %18, %22, %26, %30
  %.0.i = phi i64 [ %32, %30 ], [ %29, %26 ], [ %25, %22 ], [ %21, %18 ], [ %17, %15 ], [ 0, %1 ]
  %33 = call i64 @crc64(i64 noundef 0, ptr noundef nonnull %10, i64 noundef %.0.i) #12
  store i64 %33, ptr %3, align 8, !tbaa !49
  %34 = load ptr, ptr %8, align 8, !tbaa !44
  %35 = call ptr @sdscatlen(ptr noundef %34, ptr noundef nonnull %3, i64 noundef 8) #12
  store ptr %35, ptr %8, align 8, !tbaa !44
  call void @addReplyBulkSds(ptr noundef %0, ptr noundef %35) #12
  call void @llvm.lifetime.end.p0(i64 112, ptr nonnull %4) #12
  call void @llvm.lifetime.end.p0(i64 8, ptr nonnull %3) #12
  call void @llvm.lifetime.end.p0(i64 2, ptr nonnull %2) #12
  ret void
}